target datalayout = "e-m:e-p270:32:32-p271:32:32-p272:64:64-i64:64-i128:128-f80:128-n8:16:32:64-S128"
target triple = "x86_64-pc-linux-gnu"

%struct.erf_state_t = type { ptr, ptr, i64 }
%struct.erf_source_info_t = type { ptr, ptr }

@erf_state = internal global %struct.erf_state_t zeroinitializer, align 8

; Function Attrs: null_pointer_is_valid sspstrong uwtable
define internal i32 @erf_source_append(i64 noundef %0, i8 noundef zeroext %1, i32 noundef %2) #2 {
  %4 = alloca i64, align 8
  %5 = alloca i8, align 1
  %6 = alloca i32, align 4
  %7 = alloca ptr, align 8
  %8 = alloca i64, align 8
  %9 = alloca ptr, align 8
  store i64 %0, ptr %4, align 8
  store i8 %1, ptr %5, align 1
  store i32 %2, ptr %6, align 4
  call void @llvm.lifetime.start.p0(i64 8, ptr %7) #14
  call void @llvm.lifetime.start.p0(i64 8, ptr %8) #14
  %10 = load i64, ptr %4, align 8
  %11 = shl i64 %10, 16
  %12 = load i8, ptr %5, align 1
  %13 = zext i8 %12 to i64
  %14 = or i64 %11, %13
  store i64 %14, ptr %8, align 8
  %15 = load ptr, ptr @erf_state, align 8
  %16 = call ptr @wmem_map_lookup(ptr noundef %15, ptr noundef %8)
  store ptr %16, ptr %7, align 8
  %17 = load ptr, ptr %7, align 8
  %18 = icmp ne ptr %17, null
  br i1 %18, label %38, label %19

19:                                               ; preds = %3
  call void @llvm.lifetime.start.p0(i64 8, ptr %9) #14
  %20 = call ptr @wmem_file_scope()
  %21 = call noalias ptr @wmem_alloc(ptr noundef %20, i64 noundef 8) #16
  store ptr %21, ptr %9, align 8
  %22 = load i64, ptr %8, align 8
  %23 = load ptr, ptr %9, align 8
  store i64 %22, ptr %23, align 8
  %24 = call ptr @wmem_file_scope()
  %25 = call noalias ptr @wmem_alloc(ptr noundef %24, i64 noundef 16) #16
  store ptr %25, ptr %7, align 8
  %26 = call ptr @wmem_file_scope()
  %27 = call noalias ptr @wmem_tree_new(ptr noundef %26)
  %28 = load ptr, ptr %7, align 8
  %29 = getelementptr inbounds nuw %struct.erf_source_info_t, ptr %28, i32 0, i32 0
  store ptr %27, ptr %29, align 8
  %30 = call ptr @wmem_file_scope()
  %31 = call noalias ptr @wmem_list_new(ptr noundef %30)
  %32 = load ptr, ptr %7, align 8
  %33 = getelementptr inbounds nuw %struct.erf_source_info_t, ptr %32, i32 0, i32 1
  store ptr %31, ptr %33, align 8
  %34 = load ptr, ptr @erf_state, align 8
  %35 = load ptr, ptr %9, align 8
  %36 = load ptr, ptr %7, align 8
  %37 = call ptr @wmem_map_insert(ptr noundef %34, ptr noundef %35, ptr noundef %36)
  call void @llvm.lifetime.end.p0(i64 8, ptr %9) #14
  br label %38

38:                                               ; preds = %19, %3
  %39 = load ptr, ptr %7, align 8
  %40 = getelementptr inbounds nuw %struct.erf_source_info_t, ptr %39, i32 0, i32 1
  %41 = load ptr, ptr %40, align 8
  %42 = load i32, ptr %6, align 4
  %43 = zext i32 %42 to i64
  %44 = inttoptr i64 %43 to ptr
  call void @wmem_list_append(ptr noundef %41, ptr noundef %44)
  %45 = load ptr, ptr %7, align 8
  %46 = getelementptr inbounds nuw %struct.erf_source_info_t, ptr %45, i32 0, i32 0
  %47 = load ptr, ptr %46, align 8
  %48 = load i32, ptr %6, align 4
  %49 = load ptr, ptr %7, align 8
  %50 = getelementptr inbounds nuw %struct.erf_source_info_t, ptr %49, i32 0, i32 1
  %51 = load ptr, ptr %50, align 8
  %52 = call ptr @wmem_list_tail(ptr noundef %51)
  call void @wmem_tree_insert32(ptr noundef %47, i32 noundef %48, ptr noundef %52)
  call void @llvm.lifetime.end.p0(i64 8, ptr %8) #14
  call void @llvm.lifetime.end.p0(i64 8, ptr %7) #14
  ret i32 0
}