; Function Attrs: null_pointer_is_valid sspstrong uwtable
define internal fastcc void @erf_source_append(i64 noundef %0, i8 noundef zeroext %1, i32 noundef %2) unnamed_addr #2 {
  %4 = alloca i64, align 8
  call void @llvm.lifetime.start.p0(i64 8, ptr nonnull %4) #11
  %5 = shl i64 %0, 16
  %6 = zext i8 %1 to i64
  %7 = or disjoint i64 %5, %6
  store i64 %7, ptr %4, align 8
  %8 = load ptr, ptr @erf_state.0, align 8
  %9 = call ptr @wmem_map_lookup(ptr noundef %8, ptr noundef nonnull %4)
  %.not = icmp eq ptr %9, null
  br i1 %.not, label %10, label %23

10:                                               ; preds = %3
  %11 = call ptr @wmem_file_scope()
  %12 = call noalias dereferenceable_or_null(8) ptr @wmem_alloc(ptr noundef %11, i64 noundef 8) #12
  %13 = load i64, ptr %4, align 8
  store i64 %13, ptr %12, align 8
  %14 = call ptr @wmem_file_scope()
  %15 = call noalias dereferenceable_or_null(16) ptr @wmem_alloc(ptr noundef %14, i64 noundef 16) #12
  %16 = call ptr @wmem_file_scope()
  %17 = call noalias ptr @wmem_tree_new(ptr noundef %16)
  store ptr %17, ptr %15, align 8
  %18 = call ptr @wmem_file_scope()
  %19 = call noalias ptr @wmem_list_new(ptr noundef %18)
  %20 = getelementptr inbounds nuw i8, ptr %15, i64 8
  store ptr %19, ptr %20, align 8
  %21 = load ptr, ptr @erf_state.0, align 8
  %22 = call ptr @wmem_map_insert(ptr noundef %21, ptr noundef %12, ptr noundef %15)
  br label %23

23:                                               ; preds = %10, %3
  %.0 = phi ptr [ %9, %3 ], [ %15, %10 ]
  %24 = getelementptr inbounds nuw i8, ptr %.0, i64 8
  %25 = load ptr, ptr %24, align 8
  %26 = zext i32 %2 to i64
  %27 = inttoptr i64 %26 to ptr
  call void @wmem_list_append(ptr noundef %25, ptr noundef %27)
  %28 = load ptr, ptr %.0, align 8
  %29 = load ptr, ptr %24, align 8
  %30 = call ptr @wmem_list_tail(ptr noundef %29)
  call void @wmem_tree_insert32(ptr noundef %28, i32 noundef %2, ptr noundef %30)
  call void @llvm.lifetime.end.p0(i64 8, ptr nonnull %4) #11
  ret void
}